target datalayout = "e-m:e-p270:32:32-p271:32:32-p272:64:64-i64:64-i128:128-f80:128-n8:16:32:64-S128"
target triple = "x86_64-pc-linux-gnu"

%struct.dlist_head = type { %struct.dlist_node }
%struct.dlist_node = type { ptr, ptr }
%struct.LWLock = type { i16, %struct.pg_atomic_uint32, %struct.proclist_head }
%struct.pg_atomic_uint32 = type { i32 }
%struct.proclist_head = type { i32, i32 }
%struct.PGPROC = type { %struct.dlist_node, ptr, ptr, i32, %struct.Latch, i32, i32, i32, i32, %struct.anon, i32, i32, i32, i8, i8, i8, i8, %struct.proclist_node, %struct.proclist_node, ptr, ptr, i32, i32, %struct.pg_atomic_uint64, i32, i8, i64, i32, %struct.dlist_node, [16 x %struct.dlist_head], %struct.XidCacheStatus, %struct.XidCache, i8, %struct.pg_atomic_uint32, i32, i32, i8, %struct.pg_atomic_uint32, i32, i32, i64, i64, %struct.LWLock, ptr, ptr, i8, i32, ptr, %struct.dlist_head, %struct.dlist_node }
%struct.Latch = type { i32, i32, i8, i32 }
%struct.anon = type { i32, i32 }
%struct.proclist_node = type { i32, i32 }
%struct.pg_atomic_uint64 = type { i64 }
%struct.XidCacheStatus = type { i8, i8 }
%struct.XidCache = type { [64 x i32] }

@FastPathLockGroupsPerBackend = dso_local global i32 0, align 4
@FastPathLocalUseCounts = internal global [1024 x i32] zeroinitializer, align 16
@MyProc = external global ptr, align 8

; Function Attrs: nounwind uwtable
define internal zeroext i1 @FastPathGrantRelationLock(i32 noundef %0, i32 noundef %1) #0 {
  %3 = alloca i1, align 1
  %4 = alloca i32, align 4
  %5 = alloca i32, align 4
  %6 = alloca i32, align 4
  %7 = alloca i32, align 4
  %8 = alloca i32, align 4
  %9 = alloca i32, align 4
  %10 = alloca i32, align 4
  store i32 %0, ptr %4, align 4
  store i32 %1, ptr %5, align 4
  call void @llvm.lifetime.start.p0(i64 4, ptr %6) #9
  call void @llvm.lifetime.start.p0(i64 4, ptr %7) #9
  %11 = load i32, ptr @FastPathLockGroupsPerBackend, align 4
  %12 = mul i32 16, %11
  store i32 %12, ptr %7, align 4
  call void @llvm.lifetime.start.p0(i64 4, ptr %8) #9
  %13 = load i32, ptr %4, align 4
  %14 = zext i32 %13 to i64
  %15 = mul i64 %14, 49157
  %16 = load i32, ptr @FastPathLockGroupsPerBackend, align 4
  %17 = sext i32 %16 to i64
  %18 = urem i64 %15, %17
  %19 = trunc i64 %18 to i32
  store i32 %19, ptr %8, align 4
  store i32 0, ptr %6, align 4
  br label %20

20:                                               ; preds = %78, %2
  %21 = load i32, ptr %6, align 4
  %22 = icmp ult i32 %21, 16
  br i1 %22, label %23, label %81

23:                                               ; preds = %20
  call void @llvm.lifetime.start.p0(i64 4, ptr %9) #9
  %24 = load i32, ptr %8, align 4
  %25 = mul i32 %24, 16
  %26 = load i32, ptr %6, align 4
  %27 = add i32 %25, %26
  store i32 %27, ptr %9, align 4
  %28 = load ptr, ptr @MyProc, align 8
  %29 = getelementptr inbounds nuw %struct.PGPROC, ptr %28, i32 0, i32 43
  %30 = load ptr, ptr %29, align 8
  %31 = load i32, ptr %9, align 4
  %32 = udiv i32 %31, 16
  %33 = zext i32 %32 to i64
  %34 = getelementptr inbounds nuw i64, ptr %30, i64 %33
  %35 = load i64, ptr %34, align 8
  %36 = load i32, ptr %9, align 4
  %37 = urem i32 %36, 16
  %38 = mul i32 3, %37
  %39 = zext i32 %38 to i64
  %40 = lshr i64 %35, %39
  %41 = and i64 %40, 7
  %42 = icmp eq i64 %41, 0
  br i1 %42, label %43, label %45

43:                                               ; preds = %23
  %44 = load i32, ptr %9, align 4
  store i32 %44, ptr %7, align 4
  br label %74

45:                                               ; preds = %23
  %46 = load ptr, ptr @MyProc, align 8
  %47 = getelementptr inbounds nuw %struct.PGPROC, ptr %46, i32 0, i32 44
  %48 = load ptr, ptr %47, align 8
  %49 = load i32, ptr %9, align 4
  %50 = zext i32 %49 to i64
  %51 = getelementptr inbounds nuw i32, ptr %48, i64 %50
  %52 = load i32, ptr %51, align 4
  %53 = load i32, ptr %4, align 4
  %54 = icmp eq i32 %52, %53
  br i1 %54, label %55, label %73

55:                                               ; preds = %45
  %56 = load i32, ptr %5, align 4
  %57 = sub i32 %56, 1
  %58 = load i32, ptr %9, align 4
  %59 = urem i32 %58, 16
  %60 = mul i32 3, %59
  %61 = add i32 %57, %60
  %62 = zext i32 %61 to i64
  %63 = shl i64 1, %62
  %64 = load ptr, ptr @MyProc, align 8
  %65 = getelementptr inbounds nuw %struct.PGPROC, ptr %64, i32 0, i32 43
  %66 = load ptr, ptr %65, align 8
  %67 = load i32, ptr %9, align 4
  %68 = udiv i32 %67, 16
  %69 = zext i32 %68 to i64
  %70 = getelementptr inbounds nuw i64, ptr %66, i64 %69
  %71 = load i64, ptr %70, align 8
  %72 = or i64 %71, %63
  store i64 %72, ptr %70, align 8
  store i1 true, ptr %3, align 1
  store i32 1, ptr %10, align 4
  br label %75

73:                                               ; preds = %45
  br label %74

74:                                               ; preds = %73, %43
  store i32 0, ptr %10, align 4
  br label %75

75:                                               ; preds = %74, %55
  call void @llvm.lifetime.end.p0(i64 4, ptr %9) #9
  %76 = load i32, ptr %10, align 4
  switch i32 %76, label %117 [
    i32 0, label %77
  ]

77:                                               ; preds = %75
  br label %78

78:                                               ; preds = %77
  %79 = load i32, ptr %6, align 4
  %80 = add i32 %79, 1
  store i32 %80, ptr %6, align 4
  br label %20, !llvm.loop !15

81:                                               ; preds = %20
  %82 = load i32, ptr %7, align 4
  %83 = load i32, ptr @FastPathLockGroupsPerBackend, align 4
  %84 = mul i32 16, %83
  %85 = icmp ult i32 %82, %84
  br i1 %85, label %86, label %116

86:                                               ; preds = %81
  %87 = load i32, ptr %4, align 4
  %88 = load ptr, ptr @MyProc, align 8
  %89 = getelementptr inbounds nuw %struct.PGPROC, ptr %88, i32 0, i32 44
  %90 = load ptr, ptr %89, align 8
  %91 = load i32, ptr %7, align 4
  %92 = zext i32 %91 to i64
  %93 = getelementptr inbounds nuw i32, ptr %90, i64 %92
  store i32 %87, ptr %93, align 4
  %94 = load i32, ptr %5, align 4
  %95 = sub i32 %94, 1
  %96 = load i32, ptr %7, align 4
  %97 = urem i32 %96, 16
  %98 = mul i32 3, %97
  %99 = add i32 %95, %98
  %100 = zext i32 %99 to i64
  %101 = shl i64 1, %100
  %102 = load ptr, ptr @MyProc, align 8
  %103 = getelementptr inbounds nuw %struct.PGPROC, ptr %102, i32 0, i32 43
  %104 = load ptr, ptr %103, align 8
  %105 = load i32, ptr %7, align 4
  %106 = udiv i32 %105, 16
  %107 = zext i32 %106 to i64
  %108 = getelementptr inbounds nuw i64, ptr %104, i64 %107
  %109 = load i64, ptr %108, align 8
  %110 = or i64 %109, %101
  store i64 %110, ptr %108, align 8
  %111 = load i32, ptr %8, align 4
  %112 = zext i32 %111 to i64
  %113 = getelementptr inbounds nuw [1024 x i32], ptr @FastPathLocalUseCounts, i64 0, i64 %112
  %114 = load i32, ptr %113, align 4
  %115 = add i32 %114, 1
  store i32 %115, ptr %113, align 4
  store i1 true, ptr %3, align 1
  store i32 1, ptr %10, align 4
  br label %117

116:                                              ; preds = %81
  store i1 false, ptr %3, align 1
  store i32 1, ptr %10, align 4
  br label %117

117:                                              ; preds = %116, %86, %75
  call void @llvm.lifetime.end.p0(i64 4, ptr %8) #9
  call void @llvm.lifetime.end.p0(i64 4, ptr %7) #9
  call void @llvm.lifetime.end.p0(i64 4, ptr %6) #9
  %118 = load i1, ptr %3, align 1
  ret i1 %118
}