; Function Attrs: nofree norecurse nosync nounwind memory(readwrite, inaccessiblemem: none) uwtable
define internal fastcc noundef zeroext i1 @FastPathGrantRelationLock(i32 noundef %0, i32 noundef range(i32 1, 4) %1) unnamed_addr #8 {
  %3 = load i32, ptr @FastPathLockGroupsPerBackend, align 4
  %4 = shl i32 %3, 4
  %5 = zext i32 %0 to i64
  %6 = mul nuw nsw i64 %5, 49157
  %7 = sext i32 %3 to i64
  %8 = urem i64 %6, %7
  %9 = shl nuw nsw i64 %8, 4
  %10 = load ptr, ptr @MyProc, align 8
  %11 = getelementptr inbounds nuw i8, ptr %10, i64 768
  %12 = load ptr, ptr %11, align 8
  %13 = and i64 %8, 268435455
  %14 = getelementptr inbounds nuw i64, ptr %12, i64 %13
  %15 = load i64, ptr %14, align 8
  %16 = getelementptr inbounds nuw i8, ptr %10, i64 776
  %17 = and i64 %9, 4294967280
  br label %18

18:                                               ; preds = %2, %37
  %indvars.iv = phi i64 [ 0, %2 ], [ %indvars.iv.next, %37 ]
  %.02334 = phi i32 [ %4, %2 ], [ %.225.ph, %37 ]
  %19 = add nuw nsw i64 %indvars.iv, %17
  %20 = mul nuw nsw i64 %indvars.iv, 3
  %21 = shl nuw nsw i64 7, %20
  %22 = and i64 %15, %21
  %23 = icmp eq i64 %22, 0
  %24 = trunc nuw i64 %19 to i32
  br i1 %23, label %37, label %25

25:                                               ; preds = %18
  %26 = load ptr, ptr %16, align 8
  %27 = getelementptr inbounds nuw i32, ptr %26, i64 %19
  %28 = load i32, ptr %27, align 4
  %29 = icmp eq i32 %28, %0
  br i1 %29, label %30, label %37

30:                                               ; preds = %25
  %31 = trunc nuw nsw i64 %20 to i32
  %32 = add nsw i32 %1, -1
  %33 = add nuw nsw i32 %32, %31
  %34 = zext nneg i32 %33 to i64
  %35 = shl nuw nsw i64 1, %34
  %36 = or i64 %15, %35
  store i64 %36, ptr %14, align 8
  br label %62

37:                                               ; preds = %18, %25
  %.225.ph = phi i32 [ %24, %18 ], [ %.02334, %25 ]
  %indvars.iv.next = add nuw nsw i64 %indvars.iv, 1
  %exitcond.not = icmp eq i64 %indvars.iv.next, 16
  br i1 %exitcond.not, label %38, label %18, !llvm.loop !18

38:                                               ; preds = %37
  %39 = icmp ult i32 %.225.ph, %4
  br i1 %39, label %40, label %62

40:                                               ; preds = %38
  %41 = load ptr, ptr %16, align 8
  %42 = zext i32 %.225.ph to i64
  %43 = getelementptr inbounds nuw i32, ptr %41, i64 %42
  store i32 %0, ptr %43, align 4
  %44 = add nsw i32 %1, -1
  %45 = and i32 %.225.ph, 15
  %46 = mul nuw nsw i32 %45, 3
  %47 = add nuw nsw i32 %44, %46
  %48 = zext nneg i32 %47 to i64
  %49 = shl nuw nsw i64 1, %48
  %50 = load ptr, ptr @MyProc, align 8
  %51 = getelementptr inbounds nuw i8, ptr %50, i64 768
  %52 = load ptr, ptr %51, align 8
  %53 = lshr i32 %.225.ph, 4
  %54 = zext nneg i32 %53 to i64
  %55 = getelementptr inbounds nuw i64, ptr %52, i64 %54
  %56 = load i64, ptr %55, align 8
  %57 = or i64 %56, %49
  store i64 %57, ptr %55, align 8
  %58 = and i64 %8, 4294967295
  %59 = getelementptr inbounds nuw [1024 x i32], ptr @FastPathLocalUseCounts, i64 0, i64 %58
  %60 = load i32, ptr %59, align 4
  %61 = add i32 %60, 1
  store i32 %61, ptr %59, align 4
  br label %62

62:                                               ; preds = %30, %38, %40
  %.2 = phi i1 [ true, %30 ], [ true, %40 ], [ false, %38 ]
  ret i1 %.2
}